target datalayout = "e-m:e-p270:32:32-p271:32:32-p272:64:64-i64:64-i128:128-f80:128-n8:16:32:64-S128"
target triple = "x86_64-pc-linux-gnu"

%class.G1ConcurrentMark = type <{ ptr, ptr, %class.G1CMBitMap, %class.MemRegion, %class.G1CMRootMemRegions, %class.G1CMMarkStack, ptr, i32, i32, i32, [4 x i8], ptr, ptr, %class.TaskTerminator, %class.WorkerThreadsBarrierSync, %class.WorkerThreadsBarrierSync, i32, i8, i8, i8, i8, ptr, ptr, %class.NumberSeq, %class.NumberSeq, %class.NumberSeq, %class.NumberSeq, ptr, ptr, i32, i32, ptr, ptr, ptr, i8, [7 x i8] }>
%class.G1CMBitMap = type { %class.MarkBitMap, %class.G1CMBitMapMappingChangedListener }
%class.MarkBitMap = type { ptr, %class.MemRegion, i32, %class.BitMapView }
%class.BitMapView = type { %class.BitMap }
%class.BitMap = type { ptr, i64 }
%class.G1CMBitMapMappingChangedListener = type { %class.G1MappingChangedListener, ptr }
%class.G1MappingChangedListener = type { ptr }
%class.MemRegion = type { ptr, i64 }
%class.G1CMRootMemRegions = type <{ ptr, i64, i64, i64, i8, i8, [6 x i8] }>
%class.G1CMMarkStack = type { %"class.G1CMMarkStack::ChunkAllocator", [128 x i8], ptr, [120 x i8], ptr, i64, [112 x i8] }
%"class.G1CMMarkStack::ChunkAllocator" = type { i64, i64, i64, i64, i8, ptr, [128 x i8], i64, [120 x i8] }
%class.TaskTerminator = type { i32, ptr, [128 x i8], i32, [124 x i8], %class.Monitor, ptr }
%class.Monitor = type { %class.Mutex }
%class.Mutex = type { ptr, %class.PlatformMonitor, ptr }
%class.PlatformMonitor = type { %class.PlatformMutex, %union.pthread_cond_t }
%class.PlatformMutex = type { %union.pthread_mutex_t }
%union.pthread_mutex_t = type { %struct.__pthread_mutex_s }
%struct.__pthread_mutex_s = type { i32, i32, i32, i32, i32, i16, i16, %struct.__pthread_internal_list }
%struct.__pthread_internal_list = type { ptr, ptr }
%union.pthread_cond_t = type { %struct.__pthread_cond_s }
%struct.__pthread_cond_s = type { %union.__atomic_wide_counter, %union.__atomic_wide_counter, [2 x i32], [2 x i32], i32, i32, [2 x i32] }
%union.__atomic_wide_counter = type { i64 }
%class.WorkerThreadsBarrierSync = type <{ %class.Monitor, i32, i32, i8, i8, [6 x i8] }>
%class.NumberSeq = type { %class.AbsSeq, double, double }
%class.AbsSeq = type { ptr, i32, double, double, double, double, double }
%class.TimeInstant = type { %class.CompositeCounterRepresentation }
%class.CompositeCounterRepresentation = type { %class.Representation }
%class.Representation = type { %class.PairRep }
%class.PairRep = type { i64, i64 }
%class.TimeInterval = type { %class.CompositeCounterRepresentation }
%class.GCTimer = type { ptr, %class.TimeInstant, %class.TimeInstant, %class.TimePartitions }
%class.TimePartitions = type { ptr, %class.PhasesStack, %class.TimeInterval, %class.TimeInterval }
%class.PhasesStack = type { [6 x i32], i32 }

; Function Attrs: mustprogress nounwind uwtable
define linkonce_odr hidden void @_ZN7PairRepIllEC2Ev(ptr noundef nonnull align 8 dereferenceable(16) %0) unnamed_addr #1 comdat align 2 {
  %2 = alloca ptr, align 8
  store ptr %0, ptr %2, align 8
  %3 = load ptr, ptr %2, align 8
  %4 = getelementptr inbounds %class.PairRep, ptr %3, i32 0, i32 0
  store i64 0, ptr %4, align 8
  %5 = getelementptr inbounds %class.PairRep, ptr %3, i32 0, i32 1
  store i64 0, ptr %5, align 8
  ret void
}

; Function Attrs: mustprogress nounwind uwtable
define linkonce_odr hidden void @_ZN14RepresentationI29CompositeElapsedCounterSourceEC2Ev(ptr noundef nonnull align 8 dereferenceable(16) %0) unnamed_addr #1 comdat align 2 {
  %2 = alloca ptr, align 8
  store ptr %0, ptr %2, align 8
  %3 = load ptr, ptr %2, align 8
  %4 = getelementptr inbounds %class.Representation, ptr %3, i32 0, i32 0
  call void @_ZN7PairRepIllEC2Ev(ptr noundef nonnull align 8 dereferenceable(16) %4)
  ret void
}

; Function Attrs: mustprogress nounwind uwtable
define linkonce_odr hidden void @_ZN30CompositeCounterRepresentationI29CompositeElapsedCounterSourceEC2Ev(ptr noundef nonnull align 8 dereferenceable(16) %0) unnamed_addr #1 comdat align 2 {
  %2 = alloca ptr, align 8
  store ptr %0, ptr %2, align 8
  %3 = load ptr, ptr %2, align 8
  call void @_ZN14RepresentationI29CompositeElapsedCounterSourceEC2Ev(ptr noundef nonnull align 8 dereferenceable(16) %3)
  ret void
}

; Function Attrs: mustprogress nounwind uwtable
define linkonce_odr hidden void @_ZN11TimeInstantI30CompositeCounterRepresentation29CompositeElapsedCounterSourceE5stampEv(ptr noundef nonnull align 8 dereferenceable(16) %0) #1 comdat align 2 {
  %2 = alloca ptr, align 8
  %3 = alloca %class.PairRep, align 8
  store ptr %0, ptr %2, align 8
  %4 = load ptr, ptr %2, align 8
  %5 = call { i64, i64 } @_ZN29CompositeElapsedCounterSource3nowEv()
  %6 = getelementptr inbounds { i64, i64 }, ptr %3, i32 0, i32 0
  %7 = extractvalue { i64, i64 } %5, 0
  store i64 %7, ptr %6, align 8
  %8 = getelementptr inbounds { i64, i64 }, ptr %3, i32 0, i32 1
  %9 = extractvalue { i64, i64 } %5, 1
  store i64 %9, ptr %8, align 8
  %10 = getelementptr inbounds %class.Representation, ptr %4, i32 0, i32 0
  call void @llvm.memcpy.p0.p0.i64(ptr align 8 %10, ptr align 8 %3, i64 16, i1 false)
  ret void
}

; Function Attrs: mustprogress nounwind uwtable
define linkonce_odr hidden void @_ZN11TimeInstantI30CompositeCounterRepresentation29CompositeElapsedCounterSourceEC2Ev(ptr noundef nonnull align 8 dereferenceable(16) %0) unnamed_addr #1 comdat align 2 {
  %2 = alloca ptr, align 8
  store ptr %0, ptr %2, align 8
  %3 = load ptr, ptr %2, align 8
  call void @_ZN30CompositeCounterRepresentationI29CompositeElapsedCounterSourceEC2Ev(ptr noundef nonnull align 8 dereferenceable(16) %3)
  ret void
}

; Function Attrs: mustprogress nounwind uwtable
define linkonce_odr hidden { i64, i64 } @_ZNK7GCTimer8gc_startEv(ptr noundef nonnull align 8 dereferenceable(112) %0) #1 comdat align 2 {
  %2 = alloca %class.TimeInstant, align 8
  %3 = alloca ptr, align 8
  store ptr %0, ptr %3, align 8
  %4 = load ptr, ptr %3, align 8
  %5 = getelementptr inbounds %class.GCTimer, ptr %4, i32 0, i32 1
  call void @llvm.memcpy.p0.p0.i64(ptr align 8 %2, ptr align 8 %5, i64 16, i1 false)
  %6 = getelementptr inbounds %class.TimeInstant, ptr %2, i32 0, i32 0
  %7 = getelementptr inbounds %class.CompositeCounterRepresentation, ptr %6, i32 0, i32 0
  %8 = getelementptr inbounds %class.Representation, ptr %7, i32 0, i32 0
  %9 = load { i64, i64 }, ptr %8, align 8
  ret { i64, i64 } %9
}

; Function Attrs: mustprogress nounwind uwtable
define linkonce_odr hidden { i64, i64 } @_ZN11TimeInstantI30CompositeCounterRepresentation29CompositeElapsedCounterSourceE3nowEv() #1 comdat align 2 {
  %1 = alloca %class.TimeInstant, align 8
  call void @_ZN11TimeInstantI30CompositeCounterRepresentation29CompositeElapsedCounterSourceEC2Ev(ptr noundef nonnull align 8 dereferenceable(16) %1)
  call void @_ZN11TimeInstantI30CompositeCounterRepresentation29CompositeElapsedCounterSourceE5stampEv(ptr noundef nonnull align 8 dereferenceable(16) %1)
  %2 = getelementptr inbounds %class.TimeInstant, ptr %1, i32 0, i32 0
  %3 = getelementptr inbounds %class.CompositeCounterRepresentation, ptr %2, i32 0, i32 0
  %4 = getelementptr inbounds %class.Representation, ptr %3, i32 0, i32 0
  %5 = load { i64, i64 }, ptr %4, align 8
  ret { i64, i64 } %5
}

; Function Attrs: mustprogress nounwind uwtable
define hidden void @_ZN16G1ConcurrentMark22concurrent_cycle_startEv(ptr noundef nonnull align 8 dereferenceable(1849) %0) #1 align 2 {
  %2 = alloca ptr, align 8
  %3 = alloca %class.TimeInstant, align 8
  %4 = alloca %class.TimeInstant, align 8
  store ptr %0, ptr %2, align 8
  %5 = load ptr, ptr %2, align 8
  %6 = getelementptr inbounds %class.G1ConcurrentMark, ptr %5, i32 0, i32 21
  %7 = load ptr, ptr %6, align 8
  %8 = call { i64, i64 } @_ZN11TimeInstantI30CompositeCounterRepresentation29CompositeElapsedCounterSourceE3nowEv()
  %9 = getelementptr inbounds %class.TimeInstant, ptr %3, i32 0, i32 0
  %10 = getelementptr inbounds %class.CompositeCounterRepresentation, ptr %9, i32 0, i32 0
  %11 = getelementptr inbounds %class.Representation, ptr %10, i32 0, i32 0
  %12 = getelementptr inbounds { i64, i64 }, ptr %11, i32 0, i32 0
  %13 = extractvalue { i64, i64 } %8, 0
  store i64 %13, ptr %12, align 8
  %14 = getelementptr inbounds { i64, i64 }, ptr %11, i32 0, i32 1
  %15 = extractvalue { i64, i64 } %8, 1
  store i64 %15, ptr %14, align 8
  %16 = load ptr, ptr %7, align 8
  %17 = getelementptr inbounds ptr, ptr %16, i64 0
  %18 = load ptr, ptr %17, align 8
  call void %18(ptr noundef nonnull align 8 dereferenceable(112) %7, ptr noundef nonnull align 8 dereferenceable(16) %3)
  %19 = getelementptr inbounds %class.G1ConcurrentMark, ptr %5, i32 0, i32 22
  %20 = load ptr, ptr %19, align 8
  %21 = getelementptr inbounds %class.G1ConcurrentMark, ptr %5, i32 0, i32 21
  %22 = load ptr, ptr %21, align 8
  %23 = call { i64, i64 } @_ZNK7GCTimer8gc_startEv(ptr noundef nonnull align 8 dereferenceable(112) %22)
  %24 = getelementptr inbounds %class.TimeInstant, ptr %4, i32 0, i32 0
  %25 = getelementptr inbounds %class.CompositeCounterRepresentation, ptr %24, i32 0, i32 0
  %26 = getelementptr inbounds %class.Representation, ptr %25, i32 0, i32 0
  %27 = getelementptr inbounds { i64, i64 }, ptr %26, i32 0, i32 0
  %28 = extractvalue { i64, i64 } %23, 0
  store i64 %28, ptr %27, align 8
  %29 = getelementptr inbounds { i64, i64 }, ptr %26, i32 0, i32 1
  %30 = extractvalue { i64, i64 } %23, 1
  store i64 %30, ptr %29, align 8
  call void @_ZN8GCTracer15report_gc_startEN7GCCause5CauseERK11TimeInstantI30CompositeCounterRepresentation29CompositeElapsedCounterSourceE(ptr noundef nonnull align 8 dereferenceable(80) %20, i32 noundef 11, ptr noundef nonnull align 8 dereferenceable(16) %4)
  %31 = getelementptr inbounds %class.G1ConcurrentMark, ptr %5, i32 0, i32 1
  %32 = load ptr, ptr %31, align 8
  %33 = getelementptr inbounds %class.G1ConcurrentMark, ptr %5, i32 0, i32 22
  %34 = load ptr, ptr %33, align 8
  call void @_ZN13CollectedHeap20trace_heap_before_gcEPK8GCTracer(ptr noundef nonnull align 8 dereferenceable(104) %32, ptr noundef %34)
  ret void
}