; Function Attrs: mustprogress nounwind uwtable
define hidden void @_ZN16G1ConcurrentMark22concurrent_cycle_startEv(ptr nocapture noundef nonnull readonly align 8 dereferenceable(1849) %0) local_unnamed_addr #0 align 2 {
  %2 = alloca %class.TimeInstant, align 8
  %3 = alloca %class.TimeInstant, align 16
  %4 = getelementptr inbounds i8, ptr %0, i64 1496
  %5 = load ptr, ptr %4, align 8
  %6 = tail call { i64, i64 } @_ZN29CompositeElapsedCounterSource3nowEv() #22
  %7 = extractvalue { i64, i64 } %6, 0
  store i64 %7, ptr %2, align 8
  %8 = getelementptr inbounds i8, ptr %2, i64 8
  %9 = extractvalue { i64, i64 } %6, 1
  store i64 %9, ptr %8, align 8
  %10 = load ptr, ptr %5, align 8
  %11 = load ptr, ptr %10, align 8
  call void %11(ptr noundef nonnull align 8 dereferenceable(112) %5, ptr noundef nonnull align 8 dereferenceable(16) %2) #22
  %12 = getelementptr inbounds i8, ptr %0, i64 1504
  %13 = load ptr, ptr %12, align 8
  %14 = load ptr, ptr %4, align 8
  %15 = getelementptr inbounds i8, ptr %14, i64 8
  %16 = load <2 x i64>, ptr %15, align 8
  store <2 x i64> %16, ptr %3, align 16
  call void @_ZN8GCTracer15report_gc_startEN7GCCause5CauseERK11TimeInstantI30CompositeCounterRepresentation29CompositeElapsedCounterSourceE(ptr noundef nonnull align 8 dereferenceable(80) %13, i32 noundef 11, ptr noundef nonnull align 8 dereferenceable(16) %3) #22
  %17 = getelementptr inbounds i8, ptr %0, i64 8
  %18 = load ptr, ptr %17, align 8
  %19 = load ptr, ptr %12, align 8
  call void @_ZN13CollectedHeap20trace_heap_before_gcEPK8GCTracer(ptr noundef nonnull align 8 dereferenceable(104) %18, ptr noundef %19) #22
  ret void
}